; Function Attrs: mustprogress uwtable
define hidden void @_ZN4cvc58internal6theory9datatypes5utils23getFreeSymbolsSygusTypeENS0_8TypeNodeERSt13unordered_setINS0_12NodeTemplateILb1EEESt4hashIS7_ESt8equal_toIS7_ESaIS7_EE(ptr noundef readonly captures(none) %0, ptr noundef nonnull align 8 dereferenceable(56) %1) local_unnamed_addr #3 personality ptr @__gxx_personality_v0 {
  %3 = alloca %"class.cvc5::internal::TypeNode", align 8
  %4 = load ptr, ptr %0, align 8, !tbaa !217
  store ptr %4, ptr %3, align 8, !tbaa !217
  %5 = load i64, ptr %4, align 8
  %6 = lshr i64 %5, 40
  %7 = trunc nuw nsw i64 %6 to i32
  %8 = and i32 %7, 1048575
  %9 = icmp samesign ult i32 %8, 1048574
  br i1 %9, label %10, label %15, !prof !110

10:                                               ; preds = %2
  %11 = add i64 %5, 1099511627776
  %12 = and i64 %11, 1152920405095219200
  %13 = and i64 %5, -1152920405095219201
  %14 = or disjoint i64 %12, %13
  store i64 %14, ptr %4, align 8
  br label %_ZN4cvc58internal8TypeNodeC2ERKS1_.exit

15:                                               ; preds = %2
  %16 = icmp eq i32 %8, 1048574
  br i1 %16, label %17, label %_ZN4cvc58internal8TypeNodeC2ERKS1_.exit, !prof !111

17:                                               ; preds = %15
  %18 = or i64 %5, 1152920405095219200
  store i64 %18, ptr %4, align 8
  tail call void @_ZN4cvc58internal4expr9NodeValue20markRefCountMaxedOutEv(ptr noundef nonnull align 8 dereferenceable(24) %4)
  br label %_ZN4cvc58internal8TypeNodeC2ERKS1_.exit

_ZN4cvc58internal8TypeNodeC2ERKS1_.exit:          ; preds = %10, %15, %17
  invoke void @_ZN4cvc58internal6theory9datatypes5utils31getFreeSymbolsSygusTypeInternalENS0_8TypeNodeERSt13unordered_setINS0_12NodeTemplateILb1EEESt4hashIS7_ESt8equal_toIS7_ESaIS7_EEb(ptr noundef nonnull %3, ptr noundef nonnull align 8 dereferenceable(56) %1, i1 noundef zeroext false)
          to label %19 unwind label %33

19:                                               ; preds = %_ZN4cvc58internal8TypeNodeC2ERKS1_.exit
  %20 = load ptr, ptr %3, align 8, !tbaa !217
  %21 = load i64, ptr %20, align 8
  %22 = and i64 %21, 1152920405095219200
  %.not.i.i = icmp eq i64 %22, 1152920405095219200
  br i1 %.not.i.i, label %_ZN4cvc58internal8TypeNodeD2Ev.exit, label %23, !prof !111

23:                                               ; preds = %19
  %24 = add i64 %21, 1152920405095219200
  %25 = and i64 %24, 1152920405095219200
  %26 = and i64 %21, -1152920405095219201
  %27 = or disjoint i64 %25, %26
  store i64 %27, ptr %20, align 8
  %28 = icmp eq i64 %25, 0
  br i1 %28, label %29, label %_ZN4cvc58internal8TypeNodeD2Ev.exit, !prof !111

29:                                               ; preds = %23
  invoke void @_ZN4cvc58internal4expr9NodeValue15markForDeletionEv(ptr noundef nonnull align 8 dereferenceable(24) %20)
          to label %_ZN4cvc58internal8TypeNodeD2Ev.exit unwind label %30

30:                                               ; preds = %29
  %31 = landingpad { ptr, i32 }
          catch ptr null
  %32 = extractvalue { ptr, i32 } %31, 0
  call void @__clang_call_terminate(ptr %32) #25
  unreachable

_ZN4cvc58internal8TypeNodeD2Ev.exit:              ; preds = %19, %23, %29
  ret void

33:                                               ; preds = %_ZN4cvc58internal8TypeNodeC2ERKS1_.exit
  %34 = landingpad { ptr, i32 }
          cleanup
  call void @_ZN4cvc58internal8TypeNodeD2Ev(ptr noundef nonnull align 8 dereferenceable(8) %3) #23
  resume { ptr, i32 } %34
}